target datalayout = "e-m:e-p270:32:32-p271:32:32-p272:64:64-i64:64-i128:128-f80:128-n8:16:32:64-S128"
target triple = "x86_64-pc-linux-gnu"

%struct.ucd_record = type { i8, i8, i8, i8, i32, i16, i16 }
%struct.compiler_common = type { ptr, ptr, ptr, ptr, ptr, ptr, ptr, ptr, i32, i32, i32, i32, i32, i32, i32, i32, i32, i32, i32, ptr, i32, i32, i32, ptr, ptr, i64, i32, i32, i32, i32, i32, i32, i32, i32, i32, i32, i32, i32, i32, i32, i32, i32, i32, i64, ptr, i64, i64, ptr, ptr, ptr, ptr, ptr, ptr, ptr, ptr, ptr, ptr, ptr, ptr, ptr, ptr, ptr, ptr, ptr, ptr, ptr, ptr, ptr, ptr, ptr, ptr, ptr, ptr, i32, i32, i32, i32, i32, i32, ptr, ptr, ptr, ptr, ptr, ptr, ptr, ptr, ptr }

@_pcre2_utf8_table4 = external constant [0 x i8], align 1
@_pcre2_ucd_records_8 = external constant [0 x %struct.ucd_record], align 4
@_pcre2_ucd_stage2_8 = external constant [0 x i16], align 2
@_pcre2_ucd_stage1_8 = external constant [0 x i16], align 2

; Function Attrs: nounwind uwtable
define internal i32 @is_powerof2(i32 noundef %0) #0 {
  %2 = alloca i32, align 4
  store i32 %0, ptr %2, align 4
  %3 = load i32, ptr %2, align 4
  %4 = load i32, ptr %2, align 4
  %5 = sub i32 %4, 1
  %6 = and i32 %3, %5
  %7 = icmp eq i32 %6, 0
  %8 = zext i1 %7 to i32
  ret i32 %8
}

; Function Attrs: nounwind uwtable
define internal i32 @char_get_othercase_bit(ptr noundef %0, ptr noundef %1) #0 {
  %3 = alloca i32, align 4
  %4 = alloca ptr, align 8
  %5 = alloca ptr, align 8
  %6 = alloca i32, align 4
  %7 = alloca i32, align 4
  %8 = alloca i32, align 4
  %9 = alloca i32, align 4
  store ptr %0, ptr %4, align 8
  store ptr %1, ptr %5, align 8
  %10 = load ptr, ptr %4, align 8
  %11 = getelementptr inbounds %struct.compiler_common, ptr %10, i32 0, i32 75
  %12 = load i32, ptr %11, align 8
  %13 = icmp ne i32 %12, 0
  br i1 %13, label %19, label %14

14:                                               ; preds = %2
  %15 = load ptr, ptr %4, align 8
  %16 = getelementptr inbounds %struct.compiler_common, ptr %15, i32 0, i32 77
  %17 = load i32, ptr %16, align 8
  %18 = icmp ne i32 %17, 0
  br i1 %18, label %19, label %209

19:                                               ; preds = %14, %2
  %20 = load ptr, ptr %4, align 8
  %21 = getelementptr inbounds %struct.compiler_common, ptr %20, i32 0, i32 75
  %22 = load i32, ptr %21, align 8
  %23 = icmp ne i32 %22, 0
  br i1 %23, label %24, label %171

24:                                               ; preds = %19
  %25 = load ptr, ptr %5, align 8
  %26 = load i8, ptr %25, align 1
  %27 = zext i8 %26 to i32
  store i32 %27, ptr %6, align 4
  %28 = load i32, ptr %6, align 4
  %29 = icmp uge i32 %28, 192
  br i1 %29, label %30, label %170

30:                                               ; preds = %24
  %31 = load i32, ptr %6, align 4
  %32 = and i32 %31, 32
  %33 = icmp eq i32 %32, 0
  br i1 %33, label %34, label %44

34:                                               ; preds = %30
  %35 = load i32, ptr %6, align 4
  %36 = and i32 %35, 31
  %37 = shl i32 %36, 6
  %38 = load ptr, ptr %5, align 8
  %39 = getelementptr inbounds i8, ptr %38, i64 1
  %40 = load i8, ptr %39, align 1
  %41 = zext i8 %40 to i32
  %42 = and i32 %41, 63
  %43 = or i32 %37, %42
  store i32 %43, ptr %6, align 4
  br label %169

44:                                               ; preds = %30
  %45 = load i32, ptr %6, align 4
  %46 = and i32 %45, 16
  %47 = icmp eq i32 %46, 0
  br i1 %47, label %48, label %65

48:                                               ; preds = %44
  %49 = load i32, ptr %6, align 4
  %50 = and i32 %49, 15
  %51 = shl i32 %50, 12
  %52 = load ptr, ptr %5, align 8
  %53 = getelementptr inbounds i8, ptr %52, i64 1
  %54 = load i8, ptr %53, align 1
  %55 = zext i8 %54 to i32
  %56 = and i32 %55, 63
  %57 = shl i32 %56, 6
  %58 = or i32 %51, %57
  %59 = load ptr, ptr %5, align 8
  %60 = getelementptr inbounds i8, ptr %59, i64 2
  %61 = load i8, ptr %60, align 1
  %62 = zext i8 %61 to i32
  %63 = and i32 %62, 63
  %64 = or i32 %58, %63
  store i32 %64, ptr %6, align 4
  br label %168

65:                                               ; preds = %44
  %66 = load i32, ptr %6, align 4
  %67 = and i32 %66, 8
  %68 = icmp eq i32 %67, 0
  br i1 %68, label %69, label %93

69:                                               ; preds = %65
  %70 = load i32, ptr %6, align 4
  %71 = and i32 %70, 7
  %72 = shl i32 %71, 18
  %73 = load ptr, ptr %5, align 8
  %74 = getelementptr inbounds i8, ptr %73, i64 1
  %75 = load i8, ptr %74, align 1
  %76 = zext i8 %75 to i32
  %77 = and i32 %76, 63
  %78 = shl i32 %77, 12
  %79 = or i32 %72, %78
  %80 = load ptr, ptr %5, align 8
  %81 = getelementptr inbounds i8, ptr %80, i64 2
  %82 = load i8, ptr %81, align 1
  %83 = zext i8 %82 to i32
  %84 = and i32 %83, 63
  %85 = shl i32 %84, 6
  %86 = or i32 %79, %85
  %87 = load ptr, ptr %5, align 8
  %88 = getelementptr inbounds i8, ptr %87, i64 3
  %89 = load i8, ptr %88, align 1
  %90 = zext i8 %89 to i32
  %91 = and i32 %90, 63
  %92 = or i32 %86, %91
  store i32 %92, ptr %6, align 4
  br label %167

93:                                               ; preds = %65
  %94 = load i32, ptr %6, align 4
  %95 = and i32 %94, 4
  %96 = icmp eq i32 %95, 0
  br i1 %96, label %97, label %128

97:                                               ; preds = %93
  %98 = load i32, ptr %6, align 4
  %99 = and i32 %98, 3
  %100 = shl i32 %99, 24
  %101 = load ptr, ptr %5, align 8
  %102 = getelementptr inbounds i8, ptr %101, i64 1
  %103 = load i8, ptr %102, align 1
  %104 = zext i8 %103 to i32
  %105 = and i32 %104, 63
  %106 = shl i32 %105, 18
  %107 = or i32 %100, %106
  %108 = load ptr, ptr %5, align 8
  %109 = getelementptr inbounds i8, ptr %108, i64 2
  %110 = load i8, ptr %109, align 1
  %111 = zext i8 %110 to i32
  %112 = and i32 %111, 63
  %113 = shl i32 %112, 12
  %114 = or i32 %107, %113
  %115 = load ptr, ptr %5, align 8
  %116 = getelementptr inbounds i8, ptr %115, i64 3
  %117 = load i8, ptr %116, align 1
  %118 = zext i8 %117 to i32
  %119 = and i32 %118, 63
  %120 = shl i32 %119, 6
  %121 = or i32 %114, %120
  %122 = load ptr, ptr %5, align 8
  %123 = getelementptr inbounds i8, ptr %122, i64 4
  %124 = load i8, ptr %123, align 1
  %125 = zext i8 %124 to i32
  %126 = and i32 %125, 63
  %127 = or i32 %121, %126
  store i32 %127, ptr %6, align 4
  br label %166

128:                                              ; preds = %93
  %129 = load i32, ptr %6, align 4
  %130 = and i32 %129, 1
  %131 = shl i32 %130, 30
  %132 = load ptr, ptr %5, align 8
  %133 = getelementptr inbounds i8, ptr %132, i64 1
  %134 = load i8, ptr %133, align 1
  %135 = zext i8 %134 to i32
  %136 = and i32 %135, 63
  %137 = shl i32 %136, 24
  %138 = or i32 %131, %137
  %139 = load ptr, ptr %5, align 8
  %140 = getelementptr inbounds i8, ptr %139, i64 2
  %141 = load i8, ptr %140, align 1
  %142 = zext i8 %141 to i32
  %143 = and i32 %142, 63
  %144 = shl i32 %143, 18
  %145 = or i32 %138, %144
  %146 = load ptr, ptr %5, align 8
  %147 = getelementptr inbounds i8, ptr %146, i64 3
  %148 = load i8, ptr %147, align 1
  %149 = zext i8 %148 to i32
  %150 = and i32 %149, 63
  %151 = shl i32 %150, 12
  %152 = or i32 %145, %151
  %153 = load ptr, ptr %5, align 8
  %154 = getelementptr inbounds i8, ptr %153, i64 4
  %155 = load i8, ptr %154, align 1
  %156 = zext i8 %155 to i32
  %157 = and i32 %156, 63
  %158 = shl i32 %157, 6
  %159 = or i32 %152, %158
  %160 = load ptr, ptr %5, align 8
  %161 = getelementptr inbounds i8, ptr %160, i64 5
  %162 = load i8, ptr %161, align 1
  %163 = zext i8 %162 to i32
  %164 = and i32 %163, 63
  %165 = or i32 %159, %164
  store i32 %165, ptr %6, align 4
  br label %166

166:                                              ; preds = %128, %97
  br label %167

167:                                              ; preds = %166, %69
  br label %168

168:                                              ; preds = %167, %48
  br label %169

169:                                              ; preds = %168, %34
  br label %170

170:                                              ; preds = %169, %24
  br label %175

171:                                              ; preds = %19
  %172 = load ptr, ptr %5, align 8
  %173 = load i8, ptr %172, align 1
  %174 = zext i8 %173 to i32
  store i32 %174, ptr %6, align 4
  br label %175

175:                                              ; preds = %171, %170
  %176 = load i32, ptr %6, align 4
  %177 = icmp ule i32 %176, 127
  br i1 %177, label %178, label %187

178:                                              ; preds = %175
  %179 = load ptr, ptr %4, align 8
  %180 = getelementptr inbounds %struct.compiler_common, ptr %179, i32 0, i32 24
  %181 = load ptr, ptr %180, align 8
  %182 = load i32, ptr %6, align 4
  %183 = zext i32 %182 to i64
  %184 = getelementptr inbounds i8, ptr %181, i64 %183
  %185 = load i8, ptr %184, align 1
  %186 = zext i8 %185 to i32
  store i32 %186, ptr %7, align 4
  br label %208

187:                                              ; preds = %175
  %188 = load i32, ptr %6, align 4
  %189 = load i32, ptr %6, align 4
  %190 = sdiv i32 %189, 128
  %191 = sext i32 %190 to i64
  %192 = getelementptr inbounds [0 x i16], ptr @_pcre2_ucd_stage1_8, i64 0, i64 %191
  %193 = load i16, ptr %192, align 2
  %194 = zext i16 %193 to i32
  %195 = mul nsw i32 %194, 128
  %196 = load i32, ptr %6, align 4
  %197 = srem i32 %196, 128
  %198 = add nsw i32 %195, %197
  %199 = sext i32 %198 to i64
  %200 = getelementptr inbounds [0 x i16], ptr @_pcre2_ucd_stage2_8, i64 0, i64 %199
  %201 = load i16, ptr %200, align 2
  %202 = zext i16 %201 to i32
  %203 = sext i32 %202 to i64
  %204 = getelementptr inbounds %struct.ucd_record, ptr @_pcre2_ucd_records_8, i64 %203
  %205 = getelementptr inbounds %struct.ucd_record, ptr %204, i32 0, i32 4
  %206 = load i32, ptr %205, align 4
  %207 = add nsw i32 %188, %206
  store i32 %207, ptr %7, align 4
  br label %208

208:                                              ; preds = %187, %178
  br label %221

209:                                              ; preds = %14
  %210 = load ptr, ptr %5, align 8
  %211 = load i8, ptr %210, align 1
  %212 = zext i8 %211 to i32
  store i32 %212, ptr %6, align 4
  %213 = load ptr, ptr %4, align 8
  %214 = getelementptr inbounds %struct.compiler_common, ptr %213, i32 0, i32 24
  %215 = load ptr, ptr %214, align 8
  %216 = load i32, ptr %6, align 4
  %217 = zext i32 %216 to i64
  %218 = getelementptr inbounds i8, ptr %215, i64 %217
  %219 = load i8, ptr %218, align 1
  %220 = zext i8 %219 to i32
  store i32 %220, ptr %7, align 4
  br label %221

221:                                              ; preds = %209, %208
  br label %222

222:                                              ; preds = %221
  br label %223

223:                                              ; preds = %222
  %224 = load i32, ptr %6, align 4
  %225 = load i32, ptr %7, align 4
  %226 = xor i32 %224, %225
  store i32 %226, ptr %8, align 4
  %227 = load i32, ptr %6, align 4
  %228 = icmp ule i32 %227, 127
  br i1 %228, label %229, label %233

229:                                              ; preds = %223
  %230 = load i32, ptr %8, align 4
  %231 = icmp eq i32 %230, 32
  br i1 %231, label %232, label %233

232:                                              ; preds = %229
  store i32 32, ptr %3, align 4
  br label %272

233:                                              ; preds = %229, %223
  %234 = load i32, ptr %8, align 4
  %235 = call i32 @is_powerof2(i32 noundef %234)
  %236 = icmp ne i32 %235, 0
  br i1 %236, label %238, label %237

237:                                              ; preds = %233
  store i32 0, ptr %3, align 4
  br label %272

238:                                              ; preds = %233
  %239 = load ptr, ptr %4, align 8
  %240 = getelementptr inbounds %struct.compiler_common, ptr %239, i32 0, i32 75
  %241 = load i32, ptr %240, align 8
  %242 = icmp ne i32 %241, 0
  br i1 %242, label %243, label %269

243:                                              ; preds = %238
  %244 = load i32, ptr %6, align 4
  %245 = icmp ugt i32 %244, 127
  br i1 %245, label %246, label %269

246:                                              ; preds = %243
  %247 = load ptr, ptr %5, align 8
  %248 = load i8, ptr %247, align 1
  %249 = zext i8 %248 to i32
  %250 = and i32 %249, 63
  %251 = zext i32 %250 to i64
  %252 = getelementptr inbounds [0 x i8], ptr @_pcre2_utf8_table4, i64 0, i64 %251
  %253 = load i8, ptr %252, align 1
  %254 = zext i8 %253 to i32
  store i32 %254, ptr %9, align 4
  br label %255

255:                                              ; preds = %259, %246
  %256 = load i32, ptr %8, align 4
  %257 = and i32 %256, 63
  %258 = icmp eq i32 %257, 0
  br i1 %258, label %259, label %264

259:                                              ; preds = %255
  %260 = load i32, ptr %9, align 4
  %261 = add nsw i32 %260, -1
  store i32 %261, ptr %9, align 4
  %262 = load i32, ptr %8, align 4
  %263 = lshr i32 %262, 6
  store i32 %263, ptr %8, align 4
  br label %255

264:                                              ; preds = %255
  %265 = load i32, ptr %9, align 4
  %266 = shl i32 %265, 8
  %267 = load i32, ptr %8, align 4
  %268 = or i32 %266, %267
  store i32 %268, ptr %3, align 4
  br label %272

269:                                              ; preds = %243, %238
  %270 = load i32, ptr %8, align 4
  %271 = or i32 0, %270
  store i32 %271, ptr %3, align 4
  br label %272

272:                                              ; preds = %269, %264, %237, %232
  %273 = load i32, ptr %3, align 4
  ret i32 %273
}