; Function Attrs: nofree norecurse nosync nounwind memory(read, inaccessiblemem: none) uwtable
define internal fastcc i32 @char_get_othercase_bit(ptr nocapture noundef readonly %0, ptr nocapture noundef readonly %1) unnamed_addr #12 {
  %3 = getelementptr inbounds i8, ptr %0, i64 480
  %4 = load i32, ptr %3, align 8
  %.not = icmp eq i32 %4, 0
  br i1 %.not, label %5, label %10

5:                                                ; preds = %2
  %6 = getelementptr inbounds i8, ptr %0, i64 488
  %7 = load i32, ptr %6, align 8
  %.not62 = icmp eq i32 %7, 0
  %8 = load i8, ptr %1, align 1
  %9 = zext i8 %8 to i32
  br i1 %.not62, label %122, label %98

10:                                               ; preds = %2
  %11 = load i8, ptr %1, align 1
  %12 = zext i8 %11 to i32
  %13 = icmp ugt i8 %11, -65
  br i1 %13, label %14, label %98

14:                                               ; preds = %10
  %15 = and i32 %12, 32
  %16 = icmp eq i32 %15, 0
  %17 = getelementptr inbounds i8, ptr %1, i64 1
  %18 = load i8, ptr %17, align 1
  %19 = and i8 %18, 63
  %20 = zext nneg i8 %19 to i32
  br i1 %16, label %21, label %25

21:                                               ; preds = %14
  %22 = shl nuw nsw i32 %12, 6
  %23 = and i32 %22, 1984
  %24 = or disjoint i32 %23, %20
  br label %98

25:                                               ; preds = %14
  %26 = and i32 %12, 16
  %27 = icmp eq i32 %26, 0
  br i1 %27, label %28, label %38

28:                                               ; preds = %25
  %29 = shl nuw nsw i32 %12, 12
  %30 = and i32 %29, 61440
  %31 = shl nuw nsw i32 %20, 6
  %32 = or disjoint i32 %31, %30
  %33 = getelementptr inbounds i8, ptr %1, i64 2
  %34 = load i8, ptr %33, align 1
  %35 = and i8 %34, 63
  %36 = zext nneg i8 %35 to i32
  %37 = or disjoint i32 %32, %36
  br label %98

38:                                               ; preds = %25
  %39 = and i32 %12, 8
  %40 = icmp eq i32 %39, 0
  br i1 %40, label %41, label %57

41:                                               ; preds = %38
  %42 = shl nuw nsw i32 %12, 18
  %43 = and i32 %42, 1835008
  %44 = shl nuw nsw i32 %20, 12
  %45 = or disjoint i32 %44, %43
  %46 = getelementptr inbounds i8, ptr %1, i64 2
  %47 = load i8, ptr %46, align 1
  %48 = and i8 %47, 63
  %49 = zext nneg i8 %48 to i32
  %50 = shl nuw nsw i32 %49, 6
  %51 = or disjoint i32 %45, %50
  %52 = getelementptr inbounds i8, ptr %1, i64 3
  %53 = load i8, ptr %52, align 1
  %54 = and i8 %53, 63
  %55 = zext nneg i8 %54 to i32
  %56 = or disjoint i32 %51, %55
  br label %98

57:                                               ; preds = %38
  %58 = and i32 %12, 4
  %59 = icmp eq i32 %58, 0
  %60 = getelementptr inbounds i8, ptr %1, i64 2
  %61 = load i8, ptr %60, align 1
  %62 = and i8 %61, 63
  %63 = zext nneg i8 %62 to i32
  %64 = getelementptr inbounds i8, ptr %1, i64 3
  %65 = load i8, ptr %64, align 1
  %66 = and i8 %65, 63
  %67 = zext nneg i8 %66 to i32
  %68 = getelementptr inbounds i8, ptr %1, i64 4
  %69 = load i8, ptr %68, align 1
  %70 = and i8 %69, 63
  %71 = zext nneg i8 %70 to i32
  br i1 %59, label %72, label %82

72:                                               ; preds = %57
  %73 = shl nuw i32 %12, 24
  %74 = and i32 %73, 50331648
  %75 = shl nuw nsw i32 %20, 18
  %76 = or disjoint i32 %75, %74
  %77 = shl nuw nsw i32 %63, 12
  %78 = or disjoint i32 %76, %77
  %79 = shl nuw nsw i32 %67, 6
  %80 = or disjoint i32 %78, %79
  %81 = or disjoint i32 %80, %71
  br label %98

82:                                               ; preds = %57
  %83 = shl i32 %12, 30
  %84 = and i32 %83, 1073741824
  %85 = shl nuw nsw i32 %20, 24
  %86 = or disjoint i32 %85, %84
  %87 = shl nuw nsw i32 %63, 18
  %88 = or disjoint i32 %86, %87
  %89 = shl nuw nsw i32 %67, 12
  %90 = or disjoint i32 %88, %89
  %91 = shl nuw nsw i32 %71, 6
  %92 = or disjoint i32 %90, %91
  %93 = getelementptr inbounds i8, ptr %1, i64 5
  %94 = load i8, ptr %93, align 1
  %95 = and i8 %94, 63
  %96 = zext nneg i8 %95 to i32
  %97 = or disjoint i32 %92, %96
  br label %98

98:                                               ; preds = %5, %10, %28, %72, %82, %41, %21
  %99 = phi i8 [ %11, %21 ], [ %11, %28 ], [ %11, %41 ], [ %11, %72 ], [ %11, %82 ], [ %11, %10 ], [ %8, %5 ]
  %.058 = phi i32 [ %24, %21 ], [ %37, %28 ], [ %56, %41 ], [ %81, %72 ], [ %97, %82 ], [ %12, %10 ], [ %9, %5 ]
  %100 = icmp ult i32 %.058, 128
  br i1 %100, label %101, label %.thread65

101:                                              ; preds = %98
  %102 = getelementptr inbounds i8, ptr %0, i64 144
  %103 = load ptr, ptr %102, align 8
  %104 = zext nneg i32 %.058 to i64
  %105 = getelementptr inbounds i8, ptr %103, i64 %104
  br label %127

.thread65:                                        ; preds = %98
  %106 = lshr i32 %.058, 7
  %107 = zext nneg i32 %106 to i64
  %108 = getelementptr inbounds [0 x i16], ptr @_pcre2_ucd_stage1_8, i64 0, i64 %107
  %109 = load i16, ptr %108, align 2
  %110 = zext i16 %109 to i32
  %111 = shl nuw nsw i32 %110, 7
  %112 = and i32 %.058, 127
  %113 = or disjoint i32 %111, %112
  %114 = zext nneg i32 %113 to i64
  %115 = getelementptr inbounds [0 x i16], ptr @_pcre2_ucd_stage2_8, i64 0, i64 %114
  %116 = load i16, ptr %115, align 2
  %117 = zext i16 %116 to i64
  %118 = getelementptr inbounds %struct.ucd_record, ptr @_pcre2_ucd_records_8, i64 %117, i32 4
  %119 = load i32, ptr %118, align 4
  %120 = add nsw i32 %119, %.058
  %121 = xor i32 %120, %.058
  br label %132

122:                                              ; preds = %5
  %123 = getelementptr inbounds i8, ptr %0, i64 144
  %124 = load ptr, ptr %123, align 8
  %125 = zext i8 %8 to i64
  %126 = getelementptr inbounds i8, ptr %124, i64 %125
  br label %127

127:                                              ; preds = %101, %122
  %128 = phi i8 [ %99, %101 ], [ %8, %122 ]
  %.1 = phi i32 [ %.058, %101 ], [ %9, %122 ]
  %.057.in.in = phi ptr [ %105, %101 ], [ %126, %122 ]
  %.057.in = load i8, ptr %.057.in.in, align 1
  %.057 = zext i8 %.057.in to i32
  %129 = xor i32 %.1, %.057
  %130 = icmp ult i32 %.1, 128
  %131 = icmp eq i32 %129, 32
  %or.cond = select i1 %130, i1 %131, i1 false
  br i1 %or.cond, label %154, label %132

132:                                              ; preds = %.thread65, %127
  %133 = phi i8 [ %99, %.thread65 ], [ %128, %127 ]
  %134 = phi i32 [ %121, %.thread65 ], [ %129, %127 ]
  %.169 = phi i32 [ %.058, %.thread65 ], [ %.1, %127 ]
  %135 = tail call i32 @llvm.ctpop.i32(i32 %134), !range !10
  %136 = icmp ugt i32 %135, 1
  br i1 %136, label %154, label %137

137:                                              ; preds = %132
  %138 = icmp ne i32 %4, 0
  %139 = icmp ugt i32 %.169, 127
  %or.cond3 = and i1 %138, %139
  br i1 %or.cond3, label %140, label %154

140:                                              ; preds = %137
  %141 = and i8 %133, 63
  %142 = zext nneg i8 %141 to i64
  %143 = getelementptr inbounds [0 x i8], ptr @_pcre2_utf8_table4, i64 0, i64 %142
  %144 = load i8, ptr %143, align 1
  %145 = zext i8 %144 to i32
  %146 = and i32 %134, 63
  %147 = icmp eq i32 %146, 0
  br i1 %147, label %.lr.ph, label %._crit_edge

.lr.ph:                                           ; preds = %140, %.lr.ph
  %.071 = phi i32 [ %148, %.lr.ph ], [ %145, %140 ]
  %.05670 = phi i32 [ %149, %.lr.ph ], [ %134, %140 ]
  %148 = add nsw i32 %.071, -1
  %149 = lshr exact i32 %.05670, 6
  %150 = and i32 %.05670, 4032
  %151 = icmp eq i32 %150, 0
  br i1 %151, label %.lr.ph, label %._crit_edge

._crit_edge:                                      ; preds = %.lr.ph, %140
  %.056.lcssa = phi i32 [ %134, %140 ], [ %149, %.lr.ph ]
  %.0.lcssa = phi i32 [ %145, %140 ], [ %148, %.lr.ph ]
  %152 = shl i32 %.0.lcssa, 8
  %153 = or i32 %152, %.056.lcssa
  br label %154

154:                                              ; preds = %137, %132, %127, %._crit_edge
  %.059 = phi i32 [ %153, %._crit_edge ], [ 32, %127 ], [ 0, %132 ], [ %134, %137 ]
  ret i32 %.059
}